target datalayout = "e-m:e-p270:32:32-p271:32:32-p272:64:64-i64:64-i128:128-f80:128-n8:16:32:64-S128"
target triple = "x86_64-pc-linux-gnu"

%struct.JSValue = type { %union.JSValueUnion, i64 }
%union.JSValueUnion = type { double }

@stderr = external global ptr, align 8
@.str.17 = private unnamed_addr constant [39 x i8] c"Possibly unhandled promise rejection: \00", align 1

; Function Attrs: nounwind uwtable
define dso_local void @js_std_promise_rejection_tracker(ptr noundef %0, i64 %1, i64 %2, i64 %3, i64 %4, i32 noundef %5, ptr noundef %6) #0 {
  %8 = alloca %struct.JSValue, align 8
  %9 = alloca %struct.JSValue, align 8
  %10 = alloca ptr, align 8
  %11 = alloca i32, align 4
  %12 = alloca ptr, align 8
  %13 = getelementptr inbounds { i64, i64 }, ptr %8, i32 0, i32 0
  store i64 %1, ptr %13, align 8
  %14 = getelementptr inbounds { i64, i64 }, ptr %8, i32 0, i32 1
  store i64 %2, ptr %14, align 8
  %15 = getelementptr inbounds { i64, i64 }, ptr %9, i32 0, i32 0
  store i64 %3, ptr %15, align 8
  %16 = getelementptr inbounds { i64, i64 }, ptr %9, i32 0, i32 1
  store i64 %4, ptr %16, align 8
  store ptr %0, ptr %10, align 8
  store i32 %5, ptr %11, align 4
  store ptr %6, ptr %12, align 8
  %17 = load i32, ptr %11, align 4
  %18 = icmp ne i32 %17, 0
  br i1 %18, label %27, label %19

19:                                               ; preds = %7
  %20 = load ptr, ptr @stderr, align 8
  %21 = call i32 (ptr, ptr, ...) @fprintf(ptr noundef %20, ptr noundef @.str.17) #12
  %22 = load ptr, ptr %10, align 8
  %23 = getelementptr inbounds { i64, i64 }, ptr %9, i32 0, i32 0
  %24 = load i64, ptr %23, align 8
  %25 = getelementptr inbounds { i64, i64 }, ptr %9, i32 0, i32 1
  %26 = load i64, ptr %25, align 8
  call void @js_std_dump_error1(ptr noundef %22, i64 %24, i64 %26)
  br label %27

27:                                               ; preds = %19, %7
  ret void
}