; Function Attrs: nounwind uwtable
define dso_local void @js_std_promise_rejection_tracker(ptr noundef %0, i64 %1, i64 %2, i64 %3, i64 %4, i32 noundef %5, ptr nocapture noundef readnone %6) local_unnamed_addr #0 {
  %.not = icmp eq i32 %5, 0
  br i1 %.not, label %8, label %11

8:                                                ; preds = %7
  %9 = load ptr, ptr @stderr, align 8
  %10 = tail call i64 @fwrite(ptr nonnull @.str.17, i64 38, i64 1, ptr %9) #32
  tail call fastcc void @js_std_dump_error1(ptr noundef %0, i64 %3, i64 %4)
  br label %11

11:                                               ; preds = %8, %7
  ret void
}